target datalayout = "e-m:e-p270:32:32-p271:32:32-p272:64:64-i64:64-i128:128-f80:128-n8:16:32:64-S128"
target triple = "x86_64-pc-linux-gnu"

%struct.pmix_object_t = type { %union.pthread_mutex_t, ptr, i32, %struct.pmix_tma }
%struct.pmix_tma = type { ptr, ptr, ptr, ptr, ptr, ptr, ptr, ptr }
%union.pthread_mutex_t = type { %struct.__pthread_mutex_s }
%struct.__pthread_mutex_s = type { i32, i32, i32, i32, i32, i16, i16, %struct.__pthread_internal_list }
%struct.__pthread_internal_list = type { ptr, ptr }
%struct.pmix_pointer_array_t = type { %struct.pmix_object_t, i32, i32, i32, i32, i32, ptr, ptr }
%struct.pmix_list_t = type { %struct.pmix_object_t, %struct.pmix_list_item_t, i64 }
%struct.pmix_list_item_t = type { %struct.pmix_object_t, ptr, ptr, i32 }
%struct.pmix_proc = type { [256 x i8], i32 }
%struct.timeval = type { i64, i64 }
%struct.pmix_output_desc_t = type { i8, i8, i32, i8, i32, ptr, ptr, i32, ptr, i32, i8, i8, i8, i8, ptr, i32, i32 }
%struct.pmix_globals_t = type { i32, %struct.pmix_proc, %struct.pmix_value, %struct.pmix_value, ptr, i32, i32, ptr, i32, i32, i32, i32, i32, ptr, ptr, i32, %struct.pmix_events_t, i8, i8, %struct.timeval, %struct.pmix_list_t, %struct.pmix_pointer_array_t, i32, i32, %struct.pmix_hotel_t, i8, %struct.pmix_list_t, i8, i8, i8, i64, %struct.pmix_list_t, %struct.pmix_topology_t, %struct.pmix_cpuset_t, i8, i8, %struct.pmix_iof_flags_t, %struct.pmix_keyindex_t }
%struct.pmix_value = type { i16, %union.anon }
%union.anon = type { %struct.pmix_envar_t }
%struct.pmix_envar_t = type { ptr, ptr, i8 }
%struct.pmix_events_t = type { %struct.pmix_object_t, i64, ptr, ptr, %struct.pmix_list_t, %struct.pmix_list_t, %struct.pmix_list_t, %struct.pmix_list_t }
%struct.pmix_hotel_t = type { %struct.pmix_object_t, i32, ptr, %struct.timeval, ptr, ptr, ptr, ptr, i32 }
%struct.pmix_topology_t = type { ptr, ptr }
%struct.pmix_cpuset_t = type { ptr, ptr }
%struct.pmix_iof_flags_t = type { i8, i8, i8, i8, i8, i8, i8, ptr, ptr, i8, i8, i8, i8, i8, i8 }
%struct.pmix_keyindex_t = type { %struct.pmix_object_t, ptr, i32 }
%struct.event = type { %struct.event_callback, %union.anon.2, i32, ptr, %union.anon.4, i16, i16, %struct.timeval }
%struct.event_callback = type { %struct.anon.0, i16, i8, i8, %union.anon.1, ptr }
%struct.anon.0 = type { ptr, ptr }
%union.anon.1 = type { ptr }
%union.anon.2 = type { %struct.anon.3 }
%struct.anon.3 = type { ptr, ptr }
%union.anon.4 = type { %struct.anon.5 }
%struct.anon.5 = type { %struct.anon.6, %struct.timeval }
%struct.anon.6 = type { ptr, ptr }
%struct.pmix_peer_t = type { %struct.pmix_object_t, ptr, ptr, %struct.pmix_proc_type_t, i16, i32, i32, i32, i8, %struct.event, i8, %struct.event, i8, %struct.pmix_list_t, ptr, ptr, i32, %struct.pmix_epilog_t }
%struct.pmix_proc_type_t = type { i32, i8, i8, i8, i8 }
%struct.pmix_epilog_t = type { i32, i32, %struct.pmix_list_t, %struct.pmix_list_t, %struct.pmix_list_t }
%struct.pmix_namespace_t = type { %struct.pmix_list_item_t, ptr, %struct.anon.10, i32, i64, i64, i8, i8, ptr, i64, i64, %struct.pmix_list_t, %struct.pmix_personality_t, %struct.pmix_epilog_t, %struct.pmix_list_t, %struct.pmix_iof_flags_t, %struct.pmix_list_t }
%struct.anon.10 = type { i8, i8, i8 }
%struct.pmix_personality_t = type { i8, ptr, ptr, ptr }
%struct.pmix_bfrops_module_t = type { ptr, ptr, ptr, ptr, ptr, ptr, ptr, ptr, ptr, ptr, ptr, ptr, ptr }
%struct.pmix_buffer_t = type { %struct.pmix_object_t, i8, ptr, ptr, ptr, i64, i64 }
%struct.pmix_iof_read_event_t = type { %struct.pmix_object_t, %struct.event, %struct.timeval, i32, i8, ptr, i8, %struct.pmix_proc, i16, ptr, i64, ptr, i64 }

@pmix_output_info = external global [0 x %struct.pmix_output_desc_t], align 8
@pmix_globals = external global %struct.pmix_globals_t, align 8
@.str.2 = private unnamed_addr constant [18 x i8] c"common/pmix_iof.c\00", align 1
@pmix_bfrops_base_output = external global i32, align 4
@.str.42 = private unnamed_addr constant [34 x i8] c"[%s:%d] UNPACK version %s type %s\00", align 1

; Function Attrs: inlinehint nounwind uwtable
define internal void @pmix_atomic_wmb() #2 {
  fence release
  ret void
}

; Function Attrs: inlinehint nounwind uwtable
define internal void @pmix_atomic_rmb() #2 {
  fence acquire
  ret void
}

; Function Attrs: nounwind uwtable
define internal void @iof_stdin_cbfunc(ptr noundef %0, ptr noundef %1, ptr noundef %2, ptr noundef %3) #0 {
  %5 = alloca ptr, align 8
  %6 = alloca ptr, align 8
  %7 = alloca ptr, align 8
  %8 = alloca ptr, align 8
  %9 = alloca ptr, align 8
  %10 = alloca i32, align 4
  %11 = alloca i32, align 4
  %12 = alloca i32, align 4
  %13 = alloca i32, align 4
  store ptr %0, ptr %5, align 8, !tbaa !98
  store ptr %1, ptr %6, align 8, !tbaa !14
  store ptr %2, ptr %7, align 8, !tbaa !14
  store ptr %3, ptr %8, align 8, !tbaa !14
  call void @llvm.lifetime.start.p0(i64 8, ptr %9) #13
  %14 = load ptr, ptr %8, align 8, !tbaa !14
  store ptr %14, ptr %9, align 8, !tbaa !14
  call void @llvm.lifetime.start.p0(i64 4, ptr %10) #13
  call void @llvm.lifetime.start.p0(i64 4, ptr %11) #13
  call void @llvm.lifetime.start.p0(i64 4, ptr %12) #13
  call void @pmix_atomic_rmb()
  store i32 1, ptr %10, align 4, !tbaa !81
  br label %15

15:                                               ; preds = %4
  %16 = load i32, ptr @pmix_bfrops_base_output, align 4, !tbaa !81
  %17 = icmp sge i32 %16, 0
  br i1 %17, label %18, label %39

18:                                               ; preds = %15
  %19 = load i32, ptr @pmix_bfrops_base_output, align 4, !tbaa !81
  %20 = icmp slt i32 %19, 64
  br i1 %20, label %21, label %39

21:                                               ; preds = %18
  %22 = load i32, ptr @pmix_bfrops_base_output, align 4, !tbaa !81
  %23 = sext i32 %22 to i64
  %24 = getelementptr inbounds [0 x %struct.pmix_output_desc_t], ptr @pmix_output_info, i64 0, i64 %23
  %25 = getelementptr inbounds nuw %struct.pmix_output_desc_t, ptr %24, i32 0, i32 2
  %26 = load i32, ptr %25, align 4, !tbaa !41
  %27 = icmp sge i32 %26, 2
  br i1 %27, label %28, label %39

28:                                               ; preds = %21
  %29 = load i32, ptr @pmix_bfrops_base_output, align 4, !tbaa !81
  %30 = load ptr, ptr %5, align 8, !tbaa !98
  %31 = getelementptr inbounds nuw %struct.pmix_peer_t, ptr %30, i32 0, i32 1
  %32 = load ptr, ptr %31, align 8, !tbaa !87
  %33 = getelementptr inbounds nuw %struct.pmix_namespace_t, ptr %32, i32 0, i32 12
  %34 = getelementptr inbounds nuw %struct.pmix_personality_t, ptr %33, i32 0, i32 1
  %35 = load ptr, ptr %34, align 8, !tbaa !88
  %36 = getelementptr inbounds nuw %struct.pmix_bfrops_module_t, ptr %35, i32 0, i32 0
  %37 = load ptr, ptr %36, align 8, !tbaa !92
  %38 = call ptr @PMIx_Data_type_string(i16 noundef zeroext 20)
  call void (i32, ptr, ...) @pmix_output(i32 noundef %29, ptr noundef @.str.42, ptr noundef @.str.2, i32 noundef 1857, ptr noundef %37, ptr noundef %38)
  br label %39

39:                                               ; preds = %28, %21, %18, %15
  %40 = load ptr, ptr %7, align 8, !tbaa !14
  %41 = getelementptr inbounds nuw %struct.pmix_buffer_t, ptr %40, i32 0, i32 1
  %42 = load i8, ptr %41, align 8, !tbaa !94
  %43 = zext i8 %42 to i32
  %44 = load ptr, ptr %5, align 8, !tbaa !98
  %45 = getelementptr inbounds nuw %struct.pmix_peer_t, ptr %44, i32 0, i32 1
  %46 = load ptr, ptr %45, align 8, !tbaa !87
  %47 = getelementptr inbounds nuw %struct.pmix_namespace_t, ptr %46, i32 0, i32 12
  %48 = getelementptr inbounds nuw %struct.pmix_personality_t, ptr %47, i32 0, i32 0
  %49 = load i8, ptr %48, align 8, !tbaa !96
  %50 = zext i8 %49 to i32
  %51 = icmp eq i32 %43, %50
  br i1 %51, label %52, label %63

52:                                               ; preds = %39
  %53 = load ptr, ptr %5, align 8, !tbaa !98
  %54 = getelementptr inbounds nuw %struct.pmix_peer_t, ptr %53, i32 0, i32 1
  %55 = load ptr, ptr %54, align 8, !tbaa !87
  %56 = getelementptr inbounds nuw %struct.pmix_namespace_t, ptr %55, i32 0, i32 12
  %57 = getelementptr inbounds nuw %struct.pmix_personality_t, ptr %56, i32 0, i32 1
  %58 = load ptr, ptr %57, align 8, !tbaa !88
  %59 = getelementptr inbounds nuw %struct.pmix_bfrops_module_t, ptr %58, i32 0, i32 4
  %60 = load ptr, ptr %59, align 8, !tbaa !151
  %61 = load ptr, ptr %7, align 8, !tbaa !14
  %62 = call i32 %60(ptr noundef %61, ptr noundef %12, ptr noundef %10, i16 noundef zeroext 20)
  store i32 %62, ptr %11, align 4, !tbaa !81
  br label %64

63:                                               ; preds = %39
  store i32 -20, ptr %11, align 4, !tbaa !81
  br label %64

64:                                               ; preds = %63, %52
  br label %65

65:                                               ; preds = %64
  br label %66

66:                                               ; preds = %65
  %67 = load i32, ptr %11, align 4, !tbaa !81
  %68 = icmp ne i32 0, %67
  br i1 %68, label %69, label %75

69:                                               ; preds = %66
  %70 = load ptr, ptr %9, align 8, !tbaa !14
  %71 = getelementptr inbounds nuw %struct.pmix_iof_read_event_t, ptr %70, i32 0, i32 1
  %72 = call i32 @event_del(ptr noundef %71)
  %73 = load ptr, ptr %9, align 8, !tbaa !14
  %74 = getelementptr inbounds nuw %struct.pmix_iof_read_event_t, ptr %73, i32 0, i32 4
  store i8 0, ptr %74, align 4, !tbaa !172
  call void @pmix_atomic_wmb()
  store i32 1, ptr %13, align 4
  br label %91

75:                                               ; preds = %66
  %76 = load i32, ptr %12, align 4, !tbaa !81
  %77 = icmp ne i32 0, %76
  br i1 %77, label %78, label %89

78:                                               ; preds = %75
  %79 = load ptr, ptr %9, align 8, !tbaa !14
  %80 = getelementptr inbounds nuw %struct.pmix_iof_read_event_t, ptr %79, i32 0, i32 1
  %81 = call i32 @event_del(ptr noundef %80)
  %82 = load ptr, ptr %9, align 8, !tbaa !14
  %83 = getelementptr inbounds nuw %struct.pmix_iof_read_event_t, ptr %82, i32 0, i32 4
  store i8 0, ptr %83, align 4, !tbaa !172
  call void @pmix_atomic_wmb()
  %84 = load i32, ptr %12, align 4, !tbaa !81
  %85 = icmp ne i32 -173, %84
  br i1 %85, label %86, label %88

86:                                               ; preds = %78
  %87 = call i32 @PMIx_Notify_event(i32 noundef -172, ptr noundef getelementptr inbounds nuw (%struct.pmix_globals_t, ptr @pmix_globals, i32 0, i32 1), i8 noundef zeroext 7, ptr noundef null, i64 noundef 0, ptr noundef null, ptr noundef null)
  br label %88

88:                                               ; preds = %86, %78
  store i32 1, ptr %13, align 4
  br label %91

89:                                               ; preds = %75
  %90 = load ptr, ptr %9, align 8, !tbaa !14
  call void @pmix_iof_stdin_cb(i32 noundef 0, i16 noundef signext 0, ptr noundef %90)
  store i32 0, ptr %13, align 4
  br label %91

91:                                               ; preds = %89, %88, %69
  call void @llvm.lifetime.end.p0(i64 4, ptr %12) #13
  call void @llvm.lifetime.end.p0(i64 4, ptr %11) #13
  call void @llvm.lifetime.end.p0(i64 4, ptr %10) #13
  call void @llvm.lifetime.end.p0(i64 8, ptr %9) #13
  %92 = load i32, ptr %13, align 4
  switch i32 %92, label %94 [
    i32 0, label %93
    i32 1, label %93
  ]

93:                                               ; preds = %91, %91
  ret void

94:                                               ; preds = %91
  unreachable
}