; Function Attrs: nounwind uwtable
define internal void @iof_stdin_cbfunc(ptr noundef readonly captures(none) %0, ptr readnone captures(none) %1, ptr noundef %2, ptr noundef %3) #0 {
  %5 = alloca i32, align 4
  %6 = alloca i32, align 4
  call void @llvm.lifetime.start.p0(i64 4, ptr nonnull %5) #18
  call void @llvm.lifetime.start.p0(i64 4, ptr nonnull %6) #18
  fence acquire
  store i32 1, ptr %5, align 4, !tbaa !63
  %7 = load i32, ptr @pmix_bfrops_base_output, align 4, !tbaa !63
  %or.cond = icmp ult i32 %7, 64
  br i1 %or.cond, label %8, label %20

8:                                                ; preds = %4
  %9 = zext nneg i32 %7 to i64
  %10 = getelementptr inbounds nuw [0 x %struct.pmix_output_desc_t], ptr @pmix_output_info, i64 0, i64 %9, i32 2
  %11 = load i32, ptr %10, align 4, !tbaa !36
  %12 = icmp sgt i32 %11, 1
  br i1 %12, label %13, label %20

13:                                               ; preds = %8
  %14 = getelementptr inbounds nuw i8, ptr %0, i64 120
  %15 = load ptr, ptr %14, align 8, !tbaa !92
  %16 = getelementptr inbounds nuw i8, ptr %15, i64 488
  %17 = load ptr, ptr %16, align 8, !tbaa !93
  %18 = load ptr, ptr %17, align 8, !tbaa !97
  %19 = tail call ptr @PMIx_Data_type_string(i16 noundef zeroext 20) #18
  tail call void (i32, ptr, ...) @pmix_output(i32 noundef %7, ptr noundef nonnull @.str.42, ptr noundef nonnull @.str.2, i32 noundef 1857, ptr noundef %18, ptr noundef %19) #18
  br label %20

20:                                               ; preds = %13, %8, %4
  %21 = getelementptr inbounds nuw i8, ptr %2, i64 120
  %22 = load i8, ptr %21, align 8, !tbaa !99
  %23 = getelementptr inbounds nuw i8, ptr %0, i64 120
  %24 = load ptr, ptr %23, align 8, !tbaa !92
  %25 = getelementptr inbounds nuw i8, ptr %24, i64 480
  %26 = load i8, ptr %25, align 8, !tbaa !101
  %27 = icmp eq i8 %22, %26
  br i1 %27, label %28, label %.critedge

28:                                               ; preds = %20
  %29 = getelementptr inbounds nuw i8, ptr %24, i64 488
  %30 = load ptr, ptr %29, align 8, !tbaa !93
  %31 = getelementptr inbounds nuw i8, ptr %30, i64 32
  %32 = load ptr, ptr %31, align 8, !tbaa !134
  %33 = call i32 %32(ptr noundef nonnull %2, ptr noundef nonnull %6, ptr noundef nonnull %5, i16 noundef zeroext 20) #18
  %34 = icmp eq i32 %33, 0
  br i1 %34, label %38, label %.critedge

.critedge:                                        ; preds = %20, %28
  %35 = getelementptr inbounds nuw i8, ptr %3, i64 120
  %36 = call i32 @event_del(ptr noundef nonnull %35) #18
  %37 = getelementptr inbounds nuw i8, ptr %3, i64 268
  store i8 0, ptr %37, align 4, !tbaa !153
  fence release
  br label %48

38:                                               ; preds = %28
  %39 = load i32, ptr %6, align 4, !tbaa !63
  %.not = icmp eq i32 %39, 0
  br i1 %.not, label %47, label %40

40:                                               ; preds = %38
  %41 = getelementptr inbounds nuw i8, ptr %3, i64 120
  %42 = call i32 @event_del(ptr noundef nonnull %41) #18
  %43 = getelementptr inbounds nuw i8, ptr %3, i64 268
  store i8 0, ptr %43, align 4, !tbaa !153
  fence release
  %44 = load i32, ptr %6, align 4, !tbaa !63
  %.not13 = icmp eq i32 %44, -173
  br i1 %.not13, label %48, label %45

45:                                               ; preds = %40
  %46 = call i32 @PMIx_Notify_event(i32 noundef -172, ptr noundef nonnull getelementptr inbounds nuw (i8, ptr @pmix_globals, i64 4), i8 noundef zeroext 7, ptr noundef null, i64 noundef 0, ptr noundef null, ptr noundef null) #18
  br label %48

47:                                               ; preds = %38
  call void @pmix_iof_stdin_cb(i32 poison, i16 signext poison, ptr noundef %3)
  br label %48

48:                                               ; preds = %40, %45, %47, %.critedge
  call void @llvm.lifetime.end.p0(i64 4, ptr nonnull %6) #18
  call void @llvm.lifetime.end.p0(i64 4, ptr nonnull %5) #18
  ret void
}